Certificate:
    Data:
        Version: 3 (0x2)
        Serial Number: 3 (0x3)
    Signature Algorithm: sha256WithRSAEncryption
        Issuer: C=CN, ST=GD, L=Default City, O=Default Company Ltd, CN=centos
        Validity
            Not Before: Dec  9 01:50:46 2019 GMT
            Not After : Dec  8 01:50:46 2020 GMT
        Subject: C=CN, ST=GD, L=Default City, O=Default Company Ltd, CN=client.test
        Subject Public Key Info:
            Public Key Algorithm: rsaEncryption
                Public-Key: (2048 bit)
                Modulus:
                    00:b4:5b:4d:df:f5:05:8a:0a:77:a5:c8:cf:f5:14:
                    a2:58:d1:c0:91:13:28:e7:fe:bc:5f:41:05:64:ba:
                    50:b6:62:64:ad:d7:d1:0b:f6:fd:9f:05:5c:18:d9:
                    88:a2:a5:4e:fc:8a:52:79:8c:22:87:e5:a6:2a:91:
                    b0:bf:a6:7a:bd:0e:c7:25:52:e4:91:6a:87:4a:70:
                    5d:d2:8d:ed:cc:54:33:26:ac:28:01:17:78:f6:8d:
                    8f:a1:4f:cd:2a:86:fc:79:d1:9c:ff:bb:be:c6:b5:
                    89:04:be:e0:0e:f5:27:9d:81:bc:f3:2a:63:eb:6f:
                    78:15:bc:c3:5f:a8:c2:69:fd:43:7b:57:80:d9:95:
                    af:0e:31:dd:c9:94:a8:56:8b:93:2a:21:0c:f6:40:
                    d4:5d:f3:14:87:eb:48:1d:0a:64:2b:86:f7:84:ec:
                    c0:2f:ff:e3:a1:46:38:f9:db:62:7d:2e:0e:d8:86:
                    bf:1c:9a:cd:8a:fa:48:01:32:d6:f8:9b:8d:fa:29:
                    f8:2a:af:1f:84:8b:4e:6e:61:90:20:43:6e:99:14:
                    39:c9:12:7b:98:84:cf:81:66:ad:84:27:99:61:10:
                    d6:8a:69:91:b7:88:55:1c:87:fc:9b:40:11:1b:ec:
                    08:fc:97:1b:d2:8d:fb:50:f4:36:3c:15:31:97:b2:
                    aa:b3
                Exponent: 65537 (0x10001)
        X509v3 extensions:
            X509v3 Basic Constraints: 
                CA:FALSE
            Netscape Comment: 
                OpenSSL Generated Certificate
            X509v3 Subject Key Identifier: 
                7E:D8:9E:43:81:1C:AE:C2:41:65:3D:40:63:E1:4B:0E:F2:FE:0B:B0
            X509v3 Authority Key Identifier: 
                keyid:3F:BC:78:DB:5B:41:19:5D:D7:78:88:F1:73:73:ED:9E:4A:16:DF:36

    Signature Algorithm: sha256WithRSAEncryption
         30:28:f5:4d:f2:99:1e:ca:e3:45:36:b2:1e:bb:2e:99:26:69:
         4f:0e:96:3b:75:8d:1d:dd:13:54:2a:10:84:d6:3c:0c:01:80:
         8b:58:13:d1:3a:22:1a:f5:5f:bd:cc:e0:12:a0:ba:f6:24:d7:
         f6:00:ef:cb:79:35:e4:b6:20:aa:8a:53:e4:ec:37:19:eb:2e:
         ae:e1:98:68:bf:50:a3:6f:6e:f6:81:5c:f9:fd:2b:90:63:90:
         0c:ad:f3:01:a3:ac:f5:22:98:95:08:e6:fa:c0:a1:7f:f3:30:
         11:fc:c4:70:38:9a:4f:3c:b9:f8:67:28:87:c8:6a:79:1c:dc:
         e2:89:f8:73:df:88:b9:1d:40:dd:cf:99:71:b9:62:e5:b5:13:
         61:78:14:2d:47:5b:0c:e5:27:b9:a3:15:67:f2:97:7f:ca:22:
         79:ce:eb:48:2b:e5:43:40:93:cb:20:56:1b:2e:5f:4b:60:a6:
         f2:e4:f1:54:d2:82:f5:b3:58:c6:6a:4b:be:02:9d:2e:2c:89:
         c4:77:f0:5e:5d:93:bd:66:9c:0f:67:83:45:a2:ce:4c:89:cc:
         03:d1:71:17:e0:20:8a:90:42:cf:28:6c:f8:58:a3:a0:ca:67:
         86:a4:a2:14:c2:d9:b4:fe:d2:24:e5:88:42:99:8e:46:9f:cf:
         9f:8a:8c:2e
-----BEGIN CERTIFICATE-----
MIIDuzCCAqOgAwIBAgIBAzANBgkqhkiG9w0BAQsFADBgMQswCQYDVQQGEwJDTjEL
MAkGA1UECAwCR0QxFTATBgNVBAcMDERlZmF1bHQgQ2l0eTEcMBoGA1UECgwTRGVm
YXVsdCBDb21wYW55IEx0ZDEPMA0GA1UEAwwGY2VudG9zMB4XDTE5MTIwOTAxNTA0
NloXDTIwMTIwODAxNTA0NlowZTELMAkGA1UEBhMCQ04xCzAJBgNVBAgMAkdEMRUw
EwYDVQQHDAxEZWZhdWx0IENpdHkxHDAaBgNVBAoME0RlZmF1bHQgQ29tcGFueSBM
dGQxFDASBgNVBAMMC2NsaWVudC50ZXN0MIIBIjANBgkqhkiG9w0BAQEFAAOCAQ8A
MIIBCgKCAQEAtFtN3/UFigp3pcjP9RSiWNHAkRMo5/68X0EFZLpQtmJkrdfRC/b9
nwVcGNmIoqVO/IpSeYwih+WmKpGwv6Z6vQ7HJVLkkWqHSnBd0o3tzFQzJqwoARd4
9o2PoU/NKob8edGc/7u+xrWJBL7gDvUnnYG88ypj6294FbzDX6jCaf1De1eA2ZWv
DjHdyZSoVouTKiEM9kDUXfMUh+tIHQpkK4b3hOzAL//joUY4+dtifS4O2Ia/HJrN
ivpIATLW+JuN+in4Kq8fhItObmGQIENumRQ5yRJ7mITPgWathCeZYRDWimmRt4hV
HIf8m0ARG+wI/Jcb0o37UPQ2PBUxl7KqswIDAQABo3sweTAJBgNVHRMEAjAAMCwG
CWCGSAGG+EIBDQQfFh1PcGVuU1NMIEdlbmVyYXRlZCBDZXJ0aWZpY2F0ZTAdBgNV
HQ4EFgQUftieQ4EcrsJBZT1AY+FLDvL+C7AwHwYDVR0jBBgwFoAUP7x421tBGV3X
eIjxc3PtnkoW3zYwDQYJKoZIhvcNAQELBQADggEBADAo9U3ymR7K40U2sh67Lpkm
aU8Oljt1jR3dE1QqEITWPAwBgItYE9E6Ihr1X73M4BKguvYk1/YA78t5NeS2IKqK
U+TsNxnrLq7hmGi/UKNvbvaBXPn9K5BjkAyt8wGjrPUimJUI5vrAoX/zMBH8xHA4
mk88ufhnKIfIankc3OKJ+HPfiLkdQN3PmXG5YuW1E2F4FC1HWwzlJ7mjFWfyl3/K
InnO60gr5UNAk8sgVhsuX0tgpvLk8VTSgvWzWMZqS74CnS4sicR38F5dk71mnA9n
g0WizkyJzAPRcRfgIIqQQs8obPhYo6DKZ4akohTC2bT+0iTliEKZjkafz5+KjC4=
-----END CERTIFICATE-----
